target datalayout = "e-m:e-p270:32:32-p271:32:32-p272:64:64-i64:64-i128:128-f80:128-n8:16:32:64-S128"
target triple = "x86_64-pc-linux-gnu"

%struct.AVChannelLayout = type { i32, i32, %union.anon, ptr }
%union.anon = type { i64 }
%struct.AVFrame = type { [8 x ptr], [8 x i32], ptr, i32, i32, i32, i32, i32, %struct.AVRational, i64, i64, %struct.AVRational, i32, ptr, i32, i32, [8 x ptr], ptr, i32, ptr, i32, i32, i32, i32, i32, i32, i32, i64, ptr, i32, ptr, ptr, i64, i64, i64, i64, ptr, %struct.AVChannelLayout, i64 }
%struct.AVRational = type { i32, i32 }

@.str = private unnamed_addr constant [5 x i8] c"ichl\00", align 1
@.str.1 = private unnamed_addr constant [4 x i8] c"isf\00", align 1
@.str.2 = private unnamed_addr constant [4 x i8] c"isr\00", align 1
@.str.3 = private unnamed_addr constant [5 x i8] c"ochl\00", align 1
@.str.4 = private unnamed_addr constant [4 x i8] c"osf\00", align 1
@.str.5 = private unnamed_addr constant [4 x i8] c"osr\00", align 1
@.str.6 = private unnamed_addr constant [22 x i8] c"Failed to set option\0A\00", align 1

; Function Attrs: nounwind uwtable
define i32 @swr_config_frame(ptr noundef %0, ptr noundef %1, ptr noundef %2) #0 {
  %4 = alloca ptr, align 8
  %5 = alloca ptr, align 8
  %6 = alloca ptr, align 8
  %7 = alloca %struct.AVChannelLayout, align 8
  %8 = alloca i32, align 4
  store ptr %0, ptr %4, align 8, !tbaa !4
  store ptr %1, ptr %5, align 8, !tbaa !9
  store ptr %2, ptr %6, align 8, !tbaa !9
  call void @llvm.lifetime.start.p0(i64 24, ptr %7) #5
  call void @llvm.memset.p0.i64(ptr align 8 %7, i8 0, i64 24, i1 false)
  call void @llvm.lifetime.start.p0(i64 4, ptr %8) #5
  %9 = load ptr, ptr %4, align 8, !tbaa !4
  call void @swr_close(ptr noundef %9)
  %10 = load ptr, ptr %6, align 8, !tbaa !9
  %11 = icmp ne ptr %10, null
  br i1 %11, label %12, label %42

12:                                               ; preds = %3
  %13 = load ptr, ptr %6, align 8, !tbaa !9
  %14 = getelementptr inbounds nuw %struct.AVFrame, ptr %13, i32 0, i32 37
  %15 = call i32 @av_channel_layout_copy(ptr noundef %7, ptr noundef %14)
  store i32 %15, ptr %8, align 4, !tbaa !11
  %16 = icmp slt i32 %15, 0
  br i1 %16, label %17, label %18

17:                                               ; preds = %12
  br label %76

18:                                               ; preds = %12
  %19 = load ptr, ptr %4, align 8, !tbaa !4
  %20 = call i32 @av_opt_set_chlayout(ptr noundef %19, ptr noundef @.str, ptr noundef %7, i32 noundef 0)
  store i32 %20, ptr %8, align 4, !tbaa !11
  %21 = icmp slt i32 %20, 0
  br i1 %21, label %22, label %23

22:                                               ; preds = %18
  br label %76

23:                                               ; preds = %18
  %24 = load ptr, ptr %4, align 8, !tbaa !4
  %25 = load ptr, ptr %6, align 8, !tbaa !9
  %26 = getelementptr inbounds nuw %struct.AVFrame, ptr %25, i32 0, i32 6
  %27 = load i32, ptr %26, align 4, !tbaa !13
  %28 = sext i32 %27 to i64
  %29 = call i32 @av_opt_set_int(ptr noundef %24, ptr noundef @.str.1, i64 noundef %28, i32 noundef 0)
  store i32 %29, ptr %8, align 4, !tbaa !11
  %30 = icmp slt i32 %29, 0
  br i1 %30, label %31, label %32

31:                                               ; preds = %23
  br label %76

32:                                               ; preds = %23
  %33 = load ptr, ptr %4, align 8, !tbaa !4
  %34 = load ptr, ptr %6, align 8, !tbaa !9
  %35 = getelementptr inbounds nuw %struct.AVFrame, ptr %34, i32 0, i32 15
  %36 = load i32, ptr %35, align 4, !tbaa !24
  %37 = sext i32 %36 to i64
  %38 = call i32 @av_opt_set_int(ptr noundef %33, ptr noundef @.str.2, i64 noundef %37, i32 noundef 0)
  store i32 %38, ptr %8, align 4, !tbaa !11
  %39 = icmp slt i32 %38, 0
  br i1 %39, label %40, label %41

40:                                               ; preds = %32
  br label %76

41:                                               ; preds = %32
  br label %42

42:                                               ; preds = %41, %3
  %43 = load ptr, ptr %5, align 8, !tbaa !9
  %44 = icmp ne ptr %43, null
  br i1 %44, label %45, label %75

45:                                               ; preds = %42
  %46 = load ptr, ptr %5, align 8, !tbaa !9
  %47 = getelementptr inbounds nuw %struct.AVFrame, ptr %46, i32 0, i32 37
  %48 = call i32 @av_channel_layout_copy(ptr noundef %7, ptr noundef %47)
  store i32 %48, ptr %8, align 4, !tbaa !11
  %49 = icmp slt i32 %48, 0
  br i1 %49, label %50, label %51

50:                                               ; preds = %45
  br label %76

51:                                               ; preds = %45
  %52 = load ptr, ptr %4, align 8, !tbaa !4
  %53 = call i32 @av_opt_set_chlayout(ptr noundef %52, ptr noundef @.str.3, ptr noundef %7, i32 noundef 0)
  store i32 %53, ptr %8, align 4, !tbaa !11
  %54 = icmp slt i32 %53, 0
  br i1 %54, label %55, label %56

55:                                               ; preds = %51
  br label %76

56:                                               ; preds = %51
  %57 = load ptr, ptr %4, align 8, !tbaa !4
  %58 = load ptr, ptr %5, align 8, !tbaa !9
  %59 = getelementptr inbounds nuw %struct.AVFrame, ptr %58, i32 0, i32 6
  %60 = load i32, ptr %59, align 4, !tbaa !13
  %61 = sext i32 %60 to i64
  %62 = call i32 @av_opt_set_int(ptr noundef %57, ptr noundef @.str.4, i64 noundef %61, i32 noundef 0)
  store i32 %62, ptr %8, align 4, !tbaa !11
  %63 = icmp slt i32 %62, 0
  br i1 %63, label %64, label %65

64:                                               ; preds = %56
  br label %76

65:                                               ; preds = %56
  %66 = load ptr, ptr %4, align 8, !tbaa !4
  %67 = load ptr, ptr %5, align 8, !tbaa !9
  %68 = getelementptr inbounds nuw %struct.AVFrame, ptr %67, i32 0, i32 15
  %69 = load i32, ptr %68, align 4, !tbaa !24
  %70 = sext i32 %69 to i64
  %71 = call i32 @av_opt_set_int(ptr noundef %66, ptr noundef @.str.5, i64 noundef %70, i32 noundef 0)
  store i32 %71, ptr %8, align 4, !tbaa !11
  %72 = icmp slt i32 %71, 0
  br i1 %72, label %73, label %74

73:                                               ; preds = %65
  br label %76

74:                                               ; preds = %65
  br label %75

75:                                               ; preds = %74, %42
  store i32 0, ptr %8, align 4, !tbaa !11
  br label %76

76:                                               ; preds = %75, %73, %64, %55, %50, %40, %31, %22, %17
  %77 = load i32, ptr %8, align 4, !tbaa !11
  %78 = icmp slt i32 %77, 0
  br i1 %78, label %79, label %81

79:                                               ; preds = %76
  %80 = load ptr, ptr %4, align 8, !tbaa !4
  call void (ptr, i32, ptr, ...) @av_log(ptr noundef %80, i32 noundef 16, ptr noundef @.str.6)
  br label %81

81:                                               ; preds = %79, %76
  call void @av_channel_layout_uninit(ptr noundef %7)
  %82 = load i32, ptr %8, align 4, !tbaa !11
  call void @llvm.lifetime.end.p0(i64 4, ptr %8) #5
  call void @llvm.lifetime.end.p0(i64 24, ptr %7) #5
  ret i32 %82
}