; Function Attrs: nounwind uwtable
define range(i32 -2147483648, 1) i32 @swr_config_frame(ptr noundef %0, ptr noundef %1, ptr noundef %2) local_unnamed_addr #0 {
  %4 = alloca %struct.AVChannelLayout, align 8
  call void @llvm.lifetime.start.p0(i64 24, ptr nonnull %4) #5
  call void @llvm.memset.p0.i64(ptr noundef nonnull align 8 dereferenceable(24) %4, i8 0, i64 24, i1 false)
  tail call void @swr_close(ptr noundef %0) #5
  %.not = icmp eq ptr %2, null
  br i1 %.not, label %24, label %5

5:                                                ; preds = %3
  %6 = getelementptr inbounds nuw i8, ptr %2, i64 384
  %7 = call i32 @av_channel_layout_copy(ptr noundef nonnull %4, ptr noundef nonnull %6) #5
  %8 = icmp slt i32 %7, 0
  br i1 %8, label %44, label %9

9:                                                ; preds = %5
  %10 = call i32 @av_opt_set_chlayout(ptr noundef %0, ptr noundef nonnull @.str, ptr noundef nonnull %4, i32 noundef 0) #5
  %11 = icmp slt i32 %10, 0
  br i1 %11, label %44, label %12

12:                                               ; preds = %9
  %13 = getelementptr inbounds nuw i8, ptr %2, i64 116
  %14 = load i32, ptr %13, align 4, !tbaa !4
  %15 = sext i32 %14 to i64
  %16 = call i32 @av_opt_set_int(ptr noundef %0, ptr noundef nonnull @.str.1, i64 noundef %15, i32 noundef 0) #5
  %17 = icmp slt i32 %16, 0
  br i1 %17, label %44, label %18

18:                                               ; preds = %12
  %19 = getelementptr inbounds nuw i8, ptr %2, i64 180
  %20 = load i32, ptr %19, align 4, !tbaa !19
  %21 = sext i32 %20 to i64
  %22 = call i32 @av_opt_set_int(ptr noundef %0, ptr noundef nonnull @.str.2, i64 noundef %21, i32 noundef 0) #5
  %23 = icmp slt i32 %22, 0
  br i1 %23, label %44, label %24

24:                                               ; preds = %18, %3
  %.not27 = icmp eq ptr %1, null
  br i1 %.not27, label %45, label %25

25:                                               ; preds = %24
  %26 = getelementptr inbounds nuw i8, ptr %1, i64 384
  %27 = call i32 @av_channel_layout_copy(ptr noundef nonnull %4, ptr noundef nonnull %26) #5
  %28 = icmp slt i32 %27, 0
  br i1 %28, label %44, label %29

29:                                               ; preds = %25
  %30 = call i32 @av_opt_set_chlayout(ptr noundef %0, ptr noundef nonnull @.str.3, ptr noundef nonnull %4, i32 noundef 0) #5
  %31 = icmp slt i32 %30, 0
  br i1 %31, label %44, label %32

32:                                               ; preds = %29
  %33 = getelementptr inbounds nuw i8, ptr %1, i64 116
  %34 = load i32, ptr %33, align 4, !tbaa !4
  %35 = sext i32 %34 to i64
  %36 = call i32 @av_opt_set_int(ptr noundef %0, ptr noundef nonnull @.str.4, i64 noundef %35, i32 noundef 0) #5
  %37 = icmp slt i32 %36, 0
  br i1 %37, label %44, label %38

38:                                               ; preds = %32
  %39 = getelementptr inbounds nuw i8, ptr %1, i64 180
  %40 = load i32, ptr %39, align 4, !tbaa !19
  %41 = sext i32 %40 to i64
  %42 = call i32 @av_opt_set_int(ptr noundef %0, ptr noundef nonnull @.str.5, i64 noundef %41, i32 noundef 0) #5
  %43 = icmp slt i32 %42, 0
  br i1 %43, label %44, label %45

44:                                               ; preds = %5, %9, %12, %18, %25, %29, %32, %38
  %.0.ph = phi i32 [ %42, %38 ], [ %36, %32 ], [ %30, %29 ], [ %27, %25 ], [ %22, %18 ], [ %16, %12 ], [ %10, %9 ], [ %7, %5 ]
  call void (ptr, i32, ptr, ...) @av_log(ptr noundef %0, i32 noundef 16, ptr noundef nonnull @.str.6) #5
  br label %45

45:                                               ; preds = %38, %24, %44
  %.029 = phi i32 [ %.0.ph, %44 ], [ 0, %24 ], [ 0, %38 ]
  call void @av_channel_layout_uninit(ptr noundef nonnull %4) #5
  call void @llvm.lifetime.end.p0(i64 24, ptr nonnull %4) #5
  ret i32 %.029
}